Archive member included to satisfy reference by file (symbol)

C:/Users/tgr6hc/Desktop/Embedded_full/GatewayECU_git/FlashBootLoader/build/Application/libapplication_lib.a(main.c.obj)
                              c:/users/tgr6hc/downloads/toolchain/gcc-arm-none-eabi-9-2019-q4-major-win32/bin/../lib/gcc/arm-none-eabi/9.2.1/../../../../arm-none-eabi/lib/crt0.o (main)
C:/Users/tgr6hc/Desktop/Embedded_full/GatewayECU_git/FlashBootLoader/build/Application/libapplication_lib.a(main_sm.c.obj)
                              C:/Users/tgr6hc/Desktop/Embedded_full/GatewayECU_git/FlashBootLoader/build/Application/libapplication_lib.a(main.c.obj) (main_sm)
C:/Users/tgr6hc/Desktop/Embedded_full/GatewayECU_git/FlashBootLoader/build/Application/libapplication_lib.a(app_jumping.c.obj)
                              C:/Users/tgr6hc/Desktop/Embedded_full/GatewayECU_git/FlashBootLoader/build/Application/libapplication_lib.a(main_sm.c.obj) (bootloader_jump_to_user_app)
C:/Users/tgr6hc/Desktop/Embedded_full/GatewayECU_git/FlashBootLoader/build/Application/libapplication_lib.a(service.c.obj)
                              C:/Users/tgr6hc/Desktop/Embedded_full/GatewayECU_git/FlashBootLoader/build/Application/libapplication_lib.a(main_sm.c.obj) (service_sm)
C:/Users/tgr6hc/Desktop/Embedded_full/GatewayECU_git/FlashBootLoader/build/Application/libapplication_lib.a(service_sm.c.obj)
                              C:/Users/tgr6hc/Desktop/Embedded_full/GatewayECU_git/FlashBootLoader/build/Application/libapplication_lib.a(service.c.obj) (bootloader_handle_service)
C:/Users/tgr6hc/Desktop/Embedded_full/GatewayECU_git/FlashBootLoader/build/Application/libapplication_lib.a(SWIL_sm.c.obj)
                              C:/Users/tgr6hc/Desktop/Embedded_full/GatewayECU_git/FlashBootLoader/build/Application/libapplication_lib.a(service_sm.c.obj) (bootloader_handle_write_swil_sequence)
C:/Users/tgr6hc/Desktop/Embedded_full/GatewayECU_git/FlashBootLoader/build/Application/libapplication_lib.a(Diag_communication.c.obj)
                              C:/Users/tgr6hc/Desktop/Embedded_full/GatewayECU_git/FlashBootLoader/build/Application/libapplication_lib.a(SWIL_sm.c.obj) (DiagCom_ACK_NRC_messasgeHandle)
C:/Users/tgr6hc/Desktop/Embedded_full/GatewayECU_git/FlashBootLoader/build/Application/libapplication_lib.a(flash_hw_service.c.obj)
                              C:/Users/tgr6hc/Desktop/Embedded_full/GatewayECU_git/FlashBootLoader/build/Application/libapplication_lib.a(SWIL_sm.c.obj) (PROJ_CHK_SAE_J1850_0x1D_ptr)
C:/Users/tgr6hc/Desktop/Embedded_full/GatewayECU_git/FlashBootLoader/build/Application/libapplication_lib.a(NvM_handle.c.obj)
                              C:/Users/tgr6hc/Desktop/Embedded_full/GatewayECU_git/FlashBootLoader/build/Application/libapplication_lib.a(flash_hw_service.c.obj) (NvM_WriteAppSWStatus2Nvm)
C:/Users/tgr6hc/Desktop/Embedded_full/GatewayECU_git/FlashBootLoader/build/MCAL/libMCAL_lib.a(misc.c.obj)
                              C:/Users/tgr6hc/Desktop/Embedded_full/GatewayECU_git/FlashBootLoader/build/Application/libapplication_lib.a(main.c.obj) (NVIC_PriorityGroupConfig)
C:/Users/tgr6hc/Desktop/Embedded_full/GatewayECU_git/FlashBootLoader/build/MCAL/libMCAL_lib.a(stm32f10x_can.c.obj)
                              C:/Users/tgr6hc/Desktop/Embedded_full/GatewayECU_git/FlashBootLoader/build/Application/libapplication_lib.a(main.c.obj) (CAN_DeInit)
C:/Users/tgr6hc/Desktop/Embedded_full/GatewayECU_git/FlashBootLoader/build/MCAL/libMCAL_lib.a(stm32f10x_gpio.c.obj)
                              C:/Users/tgr6hc/Desktop/Embedded_full/GatewayECU_git/FlashBootLoader/build/Application/libapplication_lib.a(main.c.obj) (GPIO_Init)
C:/Users/tgr6hc/Desktop/Embedded_full/GatewayECU_git/FlashBootLoader/build/MCAL/libMCAL_lib.a(stm32f10x_rcc.c.obj)
                              C:/Users/tgr6hc/Desktop/Embedded_full/GatewayECU_git/FlashBootLoader/build/Application/libapplication_lib.a(main.c.obj) (RCC_APB2PeriphClockCmd)
C:/Users/tgr6hc/Desktop/Embedded_full/GatewayECU_git/FlashBootLoader/build/MCAL/libMCAL_lib.a(core_cm3.c.obj)
                              C:/Users/tgr6hc/Desktop/Embedded_full/GatewayECU_git/FlashBootLoader/build/Application/libapplication_lib.a(app_jumping.c.obj) (__set_MSP)
c:/users/tgr6hc/downloads/toolchain/gcc-arm-none-eabi-9-2019-q4-major-win32/bin/../lib/gcc/arm-none-eabi/9.2.1/../../../../arm-none-eabi/lib\libc.a(lib_a-exit.o)
                              c:/users/tgr6hc/downloads/toolchain/gcc-arm-none-eabi-9-2019-q4-major-win32/bin/../lib/gcc/arm-none-eabi/9.2.1/../../../../arm-none-eabi/lib/crt0.o (exit)
c:/users/tgr6hc/downloads/toolchain/gcc-arm-none-eabi-9-2019-q4-major-win32/bin/../lib/gcc/arm-none-eabi/9.2.1/../../../../arm-none-eabi/lib\libc.a(lib_a-impure.o)
                              c:/users/tgr6hc/downloads/toolchain/gcc-arm-none-eabi-9-2019-q4-major-win32/bin/../lib/gcc/arm-none-eabi/9.2.1/../../../../arm-none-eabi/lib\libc.a(lib_a-exit.o) (_global_impure_ptr)
c:/users/tgr6hc/downloads/toolchain/gcc-arm-none-eabi-9-2019-q4-major-win32/bin/../lib/gcc/arm-none-eabi/9.2.1/../../../../arm-none-eabi/lib\libc.a(lib_a-init.o)
                              c:/users/tgr6hc/downloads/toolchain/gcc-arm-none-eabi-9-2019-q4-major-win32/bin/../lib/gcc/arm-none-eabi/9.2.1/../../../../arm-none-eabi/lib/crt0.o (__libc_init_array)
c:/users/tgr6hc/downloads/toolchain/gcc-arm-none-eabi-9-2019-q4-major-win32/bin/../lib/gcc/arm-none-eabi/9.2.1/../../../../arm-none-eabi/lib\libc.a(lib_a-memset.o)
                              c:/users/tgr6hc/downloads/toolchain/gcc-arm-none-eabi-9-2019-q4-major-win32/bin/../lib/gcc/arm-none-eabi/9.2.1/../../../../arm-none-eabi/lib/crt0.o (memset)
c:/users/tgr6hc/downloads/toolchain/gcc-arm-none-eabi-9-2019-q4-major-win32/bin/../lib/gcc/arm-none-eabi/9.2.1/../../../../arm-none-eabi/lib\libc.a(lib_a-__call_atexit.o)
                              c:/users/tgr6hc/downloads/toolchain/gcc-arm-none-eabi-9-2019-q4-major-win32/bin/../lib/gcc/arm-none-eabi/9.2.1/../../../../arm-none-eabi/lib\libc.a(lib_a-exit.o) (__call_exitprocs)
c:/users/tgr6hc/downloads/toolchain/gcc-arm-none-eabi-9-2019-q4-major-win32/bin/../lib/gcc/arm-none-eabi/9.2.1/../../../../arm-none-eabi/lib\libc.a(lib_a-atexit.o)
                              c:/users/tgr6hc/downloads/toolchain/gcc-arm-none-eabi-9-2019-q4-major-win32/bin/../lib/gcc/arm-none-eabi/9.2.1/../../../../arm-none-eabi/lib\libc.a(lib_a-__call_atexit.o) (atexit)
c:/users/tgr6hc/downloads/toolchain/gcc-arm-none-eabi-9-2019-q4-major-win32/bin/../lib/gcc/arm-none-eabi/9.2.1/../../../../arm-none-eabi/lib\libc.a(lib_a-fini.o)
                              c:/users/tgr6hc/downloads/toolchain/gcc-arm-none-eabi-9-2019-q4-major-win32/bin/../lib/gcc/arm-none-eabi/9.2.1/../../../../arm-none-eabi/lib\libc.a(lib_a-__call_atexit.o) (__libc_fini_array)
c:/users/tgr6hc/downloads/toolchain/gcc-arm-none-eabi-9-2019-q4-major-win32/bin/../lib/gcc/arm-none-eabi/9.2.1/../../../../arm-none-eabi/lib\libc.a(lib_a-lock.o)
                              c:/users/tgr6hc/downloads/toolchain/gcc-arm-none-eabi-9-2019-q4-major-win32/bin/../lib/gcc/arm-none-eabi/9.2.1/../../../../arm-none-eabi/lib\libc.a(lib_a-__call_atexit.o) (__retarget_lock_acquire_recursive)
c:/users/tgr6hc/downloads/toolchain/gcc-arm-none-eabi-9-2019-q4-major-win32/bin/../lib/gcc/arm-none-eabi/9.2.1/../../../../arm-none-eabi/lib\libc.a(lib_a-__atexit.o)
                              c:/users/tgr6hc/downloads/toolchain/gcc-arm-none-eabi-9-2019-q4-major-win32/bin/../lib/gcc/arm-none-eabi/9.2.1/../../../../arm-none-eabi/lib\libc.a(lib_a-atexit.o) (__register_exitproc)
c:/users/tgr6hc/downloads/toolchain/gcc-arm-none-eabi-9-2019-q4-major-win32/bin/../lib/gcc/arm-none-eabi/9.2.1/../../../../arm-none-eabi/lib\libnosys.a(_exit.o)
                              c:/users/tgr6hc/downloads/toolchain/gcc-arm-none-eabi-9-2019-q4-major-win32/bin/../lib/gcc/arm-none-eabi/9.2.1/../../../../arm-none-eabi/lib\libc.a(lib_a-exit.o) (_exit)

Allocating common symbols
Common symbol       size              file

__lock___atexit_recursive_mutex
                    0x1               c:/users/tgr6hc/downloads/toolchain/gcc-arm-none-eabi-9-2019-q4-major-win32/bin/../lib/gcc/arm-none-eabi/9.2.1/../../../../arm-none-eabi/lib\libc.a(lib_a-lock.o)
__lock___arc4random_mutex
                    0x1               c:/users/tgr6hc/downloads/toolchain/gcc-arm-none-eabi-9-2019-q4-major-win32/bin/../lib/gcc/arm-none-eabi/9.2.1/../../../../arm-none-eabi/lib\libc.a(lib_a-lock.o)
CAN_InitStructure   0xc               C:/Users/tgr6hc/Desktop/Embedded_full/GatewayECU_git/FlashBootLoader/build/Application/libapplication_lib.a(main.c.obj)
__lock___env_recursive_mutex
                    0x1               c:/users/tgr6hc/downloads/toolchain/gcc-arm-none-eabi-9-2019-q4-major-win32/bin/../lib/gcc/arm-none-eabi/9.2.1/../../../../arm-none-eabi/lib\libc.a(lib_a-lock.o)
__lock___sinit_recursive_mutex
                    0x1               c:/users/tgr6hc/downloads/toolchain/gcc-arm-none-eabi-9-2019-q4-major-win32/bin/../lib/gcc/arm-none-eabi/9.2.1/../../../../arm-none-eabi/lib\libc.a(lib_a-lock.o)
__lock___malloc_recursive_mutex
                    0x1               c:/users/tgr6hc/downloads/toolchain/gcc-arm-none-eabi-9-2019-q4-major-win32/bin/../lib/gcc/arm-none-eabi/9.2.1/../../../../arm-none-eabi/lib\libc.a(lib_a-lock.o)
g_transmitData_st   0xa               C:/Users/tgr6hc/Desktop/Embedded_full/GatewayECU_git/FlashBootLoader/build/Application/libapplication_lib.a(main_sm.c.obj)
CAN_FilterInitStructure
                    0xe               C:/Users/tgr6hc/Desktop/Embedded_full/GatewayECU_git/FlashBootLoader/build/Application/libapplication_lib.a(main.c.obj)
__lock___at_quick_exit_mutex
                    0x1               c:/users/tgr6hc/downloads/toolchain/gcc-arm-none-eabi-9-2019-q4-major-win32/bin/../lib/gcc/arm-none-eabi/9.2.1/../../../../arm-none-eabi/lib\libc.a(lib_a-lock.o)
TxMessage           0x14              C:/Users/tgr6hc/Desktop/Embedded_full/GatewayECU_git/FlashBootLoader/build/Application/libapplication_lib.a(main.c.obj)
__lock___dd_hash_mutex
                    0x1               c:/users/tgr6hc/downloads/toolchain/gcc-arm-none-eabi-9-2019-q4-major-win32/bin/../lib/gcc/arm-none-eabi/9.2.1/../../../../arm-none-eabi/lib\libc.a(lib_a-lock.o)
__lock___tz_mutex   0x1               c:/users/tgr6hc/downloads/toolchain/gcc-arm-none-eabi-9-2019-q4-major-win32/bin/../lib/gcc/arm-none-eabi/9.2.1/../../../../arm-none-eabi/lib\libc.a(lib_a-lock.o)
__lock___sfp_recursive_mutex
                    0x1               c:/users/tgr6hc/downloads/toolchain/gcc-arm-none-eabi-9-2019-q4-major-win32/bin/../lib/gcc/arm-none-eabi/9.2.1/../../../../arm-none-eabi/lib\libc.a(lib_a-lock.o)

Memory Configuration

Name             Origin             Length             Attributes
rom              0x08000000         0x00008000         xr
ram              0x20000000         0x00005000         xrw
*default*        0x00000000         0xffffffff

Linker script and memory map

LOAD c:/users/tgr6hc/downloads/toolchain/gcc-arm-none-eabi-9-2019-q4-major-win32/bin/../lib/gcc/arm-none-eabi/9.2.1/crti.o
LOAD c:/users/tgr6hc/downloads/toolchain/gcc-arm-none-eabi-9-2019-q4-major-win32/bin/../lib/gcc/arm-none-eabi/9.2.1/crtbegin.o
LOAD c:/users/tgr6hc/downloads/toolchain/gcc-arm-none-eabi-9-2019-q4-major-win32/bin/../lib/gcc/arm-none-eabi/9.2.1/../../../../arm-none-eabi/lib/crt0.o
LOAD C:/Users/tgr6hc/Desktop/Embedded_full/GatewayECU_git/FlashBootLoader/build/Application/libapplication_lib.a
LOAD C:/Users/tgr6hc/Desktop/Embedded_full/GatewayECU_git/FlashBootLoader/build/MCAL/libMCAL_lib.a
LOAD C:\Users\tgr6hc\AppData\Local\Temp\cc835wyF.o
START GROUP
LOAD c:/users/tgr6hc/downloads/toolchain/gcc-arm-none-eabi-9-2019-q4-major-win32/bin/../lib/gcc/arm-none-eabi/9.2.1\libgcc.a
LOAD c:/users/tgr6hc/downloads/toolchain/gcc-arm-none-eabi-9-2019-q4-major-win32/bin/../lib/gcc/arm-none-eabi/9.2.1/../../../../arm-none-eabi/lib\libc.a
END GROUP
START GROUP
LOAD c:/users/tgr6hc/downloads/toolchain/gcc-arm-none-eabi-9-2019-q4-major-win32/bin/../lib/gcc/arm-none-eabi/9.2.1\libgcc.a
LOAD c:/users/tgr6hc/downloads/toolchain/gcc-arm-none-eabi-9-2019-q4-major-win32/bin/../lib/gcc/arm-none-eabi/9.2.1/../../../../arm-none-eabi/lib\libc.a
LOAD c:/users/tgr6hc/downloads/toolchain/gcc-arm-none-eabi-9-2019-q4-major-win32/bin/../lib/gcc/arm-none-eabi/9.2.1/../../../../arm-none-eabi/lib\libnosys.a
END GROUP
LOAD c:/users/tgr6hc/downloads/toolchain/gcc-arm-none-eabi-9-2019-q4-major-win32/bin/../lib/gcc/arm-none-eabi/9.2.1/crtend.o
LOAD c:/users/tgr6hc/downloads/toolchain/gcc-arm-none-eabi-9-2019-q4-major-win32/bin/../lib/gcc/arm-none-eabi/9.2.1/crtn.o
                0x08003638                current_add_rom = 0x8000000

.isr_vector     0x08000000        0x0
                0x08000000                . = ALIGN (0x4)
                0x08000000                _start_rom_isr_vector = .
 *(.isr_vector)
                0x08000000                . = ALIGN (0x4)
                0x08000000                _end_rom_isr_vector = .
                0x08003638                current_add_rom = .

.text           0x08000000     0x362c
                0x08000000                . = ALIGN (0x4)
                0x08000000                _start_rom_text = .
 *(.text)
 .text          0x08000000        0x0 c:/users/tgr6hc/downloads/toolchain/gcc-arm-none-eabi-9-2019-q4-major-win32/bin/../lib/gcc/arm-none-eabi/9.2.1/crti.o
 .text          0x08000000       0x70 c:/users/tgr6hc/downloads/toolchain/gcc-arm-none-eabi-9-2019-q4-major-win32/bin/../lib/gcc/arm-none-eabi/9.2.1/crtbegin.o
 .text          0x08000070      0x114 c:/users/tgr6hc/downloads/toolchain/gcc-arm-none-eabi-9-2019-q4-major-win32/bin/../lib/gcc/arm-none-eabi/9.2.1/../../../../arm-none-eabi/lib/crt0.o
                0x08000070                _start
                0x08000070                _mainCRTStartup
 .text          0x08000184      0x208 C:/Users/tgr6hc/Desktop/Embedded_full/GatewayECU_git/FlashBootLoader/build/Application/libapplication_lib.a(main.c.obj)
                0x08000184                main
                0x080001bc                CAN_Config
                0x080002e0                NVIC_Config
                0x0800030e                Init_RxMes
                0x08000360                Delay
 .text          0x0800038c       0xc0 C:/Users/tgr6hc/Desktop/Embedded_full/GatewayECU_git/FlashBootLoader/build/Application/libapplication_lib.a(main_sm.c.obj)
                0x0800038c                main_sm
 .text          0x0800044c       0x30 C:/Users/tgr6hc/Desktop/Embedded_full/GatewayECU_git/FlashBootLoader/build/Application/libapplication_lib.a(app_jumping.c.obj)
                0x0800044c                bootloader_jump_to_user_app
 .text          0x0800047c       0x1c C:/Users/tgr6hc/Desktop/Embedded_full/GatewayECU_git/FlashBootLoader/build/Application/libapplication_lib.a(service.c.obj)
                0x0800047c                service_sm
 .text          0x08000498       0xe4 C:/Users/tgr6hc/Desktop/Embedded_full/GatewayECU_git/FlashBootLoader/build/Application/libapplication_lib.a(service_sm.c.obj)
                0x08000498                isServiceRequestValid
                0x080004d0                bootloader_handle_service
 .text          0x0800057c      0x2dc C:/Users/tgr6hc/Desktop/Embedded_full/GatewayECU_git/FlashBootLoader/build/Application/libapplication_lib.a(SWIL_sm.c.obj)
                0x0800057c                bootloader_handle_write_swil_sequence
                0x08000680                SWIL_checkTransitionHandle2Send
                0x080006a2                SWIL_handleSendData
                0x080006f0                SWIL_handle_write_swil
                0x08000754                SWIL_execute_swil_write
                0x080007b8                SWIL_CopyData2RAM
                0x080007ee                SWIL_verify_ram_address
 .text          0x08000858       0xec C:/Users/tgr6hc/Desktop/Embedded_full/GatewayECU_git/FlashBootLoader/build/Application/libapplication_lib.a(Diag_communication.c.obj)
                0x08000858                DiagCom_ACK_NRC_messasgeHandle
                0x08000890                DiagCom_ACK_messageServiceStatusHandle
                0x080008c8                DiagCom_handleSendData
 .text          0x08000944      0x4c8 C:/Users/tgr6hc/Desktop/Embedded_full/GatewayECU_git/FlashBootLoader/build/Application/libapplication_lib.a(flash_hw_service.c.obj)
                0x08000944                flashing_check_api_flash_drv
                0x08000964                flashing_execute_flash_erase
                0x080009d0                flashing_handle_flash_erase
                0x08000a46                flashing_verify_address
                0x08000a9c                bootloader_handle_flash_erase_sequence
                0x08000b50                flashing_execute_mem_flash_write
                0x08000bd8                flashing_handle_mem_write
                0x08000c40                bootloader_handle_flash_write_sequence
 .text          0x08000e0c       0x48 C:/Users/tgr6hc/Desktop/Embedded_full/GatewayECU_git/FlashBootLoader/build/Application/libapplication_lib.a(NvM_handle.c.obj)
                0x08000e0c                NvM_WriteAppSWStatus2Nvm
                0x08000e22                NvM_WriteReflashFlag2Nvm
                0x08000e38                NvM_ReadAppSWStatusFromNvm
                0x08000e46                NvM_ReadReflashFlag
 .text          0x08000e54      0x18c C:/Users/tgr6hc/Desktop/Embedded_full/GatewayECU_git/FlashBootLoader/build/MCAL/libMCAL_lib.a(misc.c.obj)
                0x08000e54                NVIC_PriorityGroupConfig
                0x08000e78                NVIC_Init
                0x08000f3c                NVIC_SetVectorTable
                0x08000f68                NVIC_SystemLPConfig
                0x08000fa8                SysTick_CLKSourceConfig
 .text          0x08000fe0     0x1188 C:/Users/tgr6hc/Desktop/Embedded_full/GatewayECU_git/FlashBootLoader/build/MCAL/libMCAL_lib.a(stm32f10x_can.c.obj)
                0x08000fe0                CAN_DeInit
                0x08001028                CAN_Init
                0x080011c8                CAN_FilterInit
                0x0800134c                CAN_StructInit
                0x080013a0                CAN_SlaveStartBank
                0x08001400                CAN_DBGFreeze
                0x08001436                CAN_TTComModeCmd
                0x080014cc                CAN_Transmit
                0x0800166c                CAN_TransmitStatus
                0x08001770                CAN_CancelTransmit
                0x080017c6                CAN_Receive
                0x08001940                CAN_FIFORelease
                0x08001976                CAN_MessagePending
                0x080019be                CAN_OperatingModeRequest
                0x08001ab8                CAN_Sleep
                0x08001af0                CAN_WakeUp
                0x08001b44                CAN_GetLastErrorCode
                0x08001b68                CAN_GetReceiveErrorCounter
                0x08001b88                CAN_GetLSBTransmitErrorCounter
                0x08001ba8                CAN_ITConfig
                0x08001be2                CAN_GetFlagStatus
                0x08001cae                CAN_ClearFlag
                0x08001d20                CAN_GetITStatus
                0x08001f84                CAN_ClearITPendingBit
 .text          0x08002168      0x5d8 C:/Users/tgr6hc/Desktop/Embedded_full/GatewayECU_git/FlashBootLoader/build/MCAL/libMCAL_lib.a(stm32f10x_gpio.c.obj)
                0x08002168                GPIO_DeInit
                0x0800224c                GPIO_AFIODeInit
                0x08002264                GPIO_Init
                0x080023dc                GPIO_StructInit
                0x08002402                GPIO_ReadInputDataBit
                0x08002434                GPIO_ReadInputData
                0x0800244c                GPIO_ReadOutputDataBit
                0x0800247e                GPIO_ReadOutputData
                0x08002496                GPIO_SetBits
                0x080024b2                GPIO_ResetBits
                0x080024ce                GPIO_WriteBit
                0x080024fc                GPIO_Write
                0x08002518                GPIO_PinLockConfig
                0x0800255a                GPIO_EventOutputConfig
                0x080025a4                GPIO_EventOutputCmd
                0x080025c4                GPIO_PinRemapConfig
                0x080026a4                GPIO_EXTILineConfig
                0x08002724                GPIO_ETH_MediaInterfaceConfig
 .text          0x08002740      0x7dc C:/Users/tgr6hc/Desktop/Embedded_full/GatewayECU_git/FlashBootLoader/build/MCAL/libMCAL_lib.a(stm32f10x_rcc.c.obj)
                0x08002740                RCC_DeInit
                0x0800279c                RCC_HSEConfig
                0x080027f8                RCC_WaitForHSEStartUp
                0x08002848                RCC_AdjustHSICalibrationValue
                0x08002884                RCC_HSICmd
                0x080028a4                RCC_PLLConfig
                0x080028e0                RCC_PLLCmd
                0x08002900                RCC_SYSCLKConfig
                0x08002938                RCC_GetSYSCLKSource
                0x08002954                RCC_HCLKConfig
                0x0800298c                RCC_PCLK1Config
                0x080029c4                RCC_PCLK2Config
                0x080029fc                RCC_ITConfig
                0x08002a48                RCC_USBCLKConfig
                0x08002a64                RCC_ADCCLKConfig
                0x08002a9c                RCC_LSEConfig
                0x08002adc                RCC_LSICmd
                0x08002afc                RCC_RTCCLKConfig
                0x08002b20                RCC_RTCCLKCmd
                0x08002b40                RCC_GetClocksFreq
                0x08002cac                RCC_AHBPeriphClockCmd
                0x08002ce8                RCC_APB2PeriphClockCmd
                0x08002d24                RCC_APB1PeriphClockCmd
                0x08002d60                RCC_APB2PeriphResetCmd
                0x08002d9c                RCC_APB1PeriphResetCmd
                0x08002dd8                RCC_BackupResetCmd
                0x08002df8                RCC_ClockSecuritySystemCmd
                0x08002e18                RCC_MCOConfig
                0x08002e38                RCC_GetFlagStatus
                0x08002eac                RCC_ClearFlag
                0x08002ec8                RCC_GetITStatus
                0x08002efc                RCC_ClearITPendingBit
 .text          0x08002f1c      0x252 C:/Users/tgr6hc/Desktop/Embedded_full/GatewayECU_git/FlashBootLoader/build/MCAL/libMCAL_lib.a(core_cm3.c.obj)
                0x08002f1c                __get_PSP
                0x08002f2c                __set_PSP
                0x08002f36                __get_MSP
                0x08002f46                __set_MSP
                0x08002f50                __get_BASEPRI
                0x08002f6c                __set_BASEPRI
                0x08002f84                __get_PRIMASK
                0x08002fa0                __set_PRIMASK
                0x08002fb8                __get_FAULTMASK
                0x08002fd4                __set_FAULTMASK
                0x08002fec                __get_CONTROL
                0x08003008                __set_CONTROL
                0x08003020                __REV
                0x0800303e                __REV16
                0x0800305e                __REVSH
                0x0800307e                __RBIT
                0x0800309e                __LDREXB
                0x080030be                __LDREXH
                0x080030de                __LDREXW
                0x080030fe                __STREXB
                0x08003124                __STREXH
                0x0800314a                __STREXW
 .text          0x0800316e        0x0 C:\Users\tgr6hc\AppData\Local\Temp\cc835wyF.o
 .text          0x0800316e        0x0 c:/users/tgr6hc/downloads/toolchain/gcc-arm-none-eabi-9-2019-q4-major-win32/bin/../lib/gcc/arm-none-eabi/9.2.1/../../../../arm-none-eabi/lib\libc.a(lib_a-exit.o)
 .text          0x0800316e        0x0 c:/users/tgr6hc/downloads/toolchain/gcc-arm-none-eabi-9-2019-q4-major-win32/bin/../lib/gcc/arm-none-eabi/9.2.1/../../../../arm-none-eabi/lib\libc.a(lib_a-impure.o)
 .text          0x0800316e        0x0 c:/users/tgr6hc/downloads/toolchain/gcc-arm-none-eabi-9-2019-q4-major-win32/bin/../lib/gcc/arm-none-eabi/9.2.1/../../../../arm-none-eabi/lib\libc.a(lib_a-init.o)
 .text          0x0800316e        0x0 c:/users/tgr6hc/downloads/toolchain/gcc-arm-none-eabi-9-2019-q4-major-win32/bin/../lib/gcc/arm-none-eabi/9.2.1/../../../../arm-none-eabi/lib\libc.a(lib_a-memset.o)
 .text          0x0800316e        0x0 c:/users/tgr6hc/downloads/toolchain/gcc-arm-none-eabi-9-2019-q4-major-win32/bin/../lib/gcc/arm-none-eabi/9.2.1/../../../../arm-none-eabi/lib\libc.a(lib_a-__call_atexit.o)
 .text          0x0800316e        0x0 c:/users/tgr6hc/downloads/toolchain/gcc-arm-none-eabi-9-2019-q4-major-win32/bin/../lib/gcc/arm-none-eabi/9.2.1/../../../../arm-none-eabi/lib\libc.a(lib_a-atexit.o)
 .text          0x0800316e        0x0 c:/users/tgr6hc/downloads/toolchain/gcc-arm-none-eabi-9-2019-q4-major-win32/bin/../lib/gcc/arm-none-eabi/9.2.1/../../../../arm-none-eabi/lib\libc.a(lib_a-fini.o)
 .text          0x0800316e        0x0 c:/users/tgr6hc/downloads/toolchain/gcc-arm-none-eabi-9-2019-q4-major-win32/bin/../lib/gcc/arm-none-eabi/9.2.1/../../../../arm-none-eabi/lib\libc.a(lib_a-lock.o)
 .text          0x0800316e        0x0 c:/users/tgr6hc/downloads/toolchain/gcc-arm-none-eabi-9-2019-q4-major-win32/bin/../lib/gcc/arm-none-eabi/9.2.1/../../../../arm-none-eabi/lib\libc.a(lib_a-__atexit.o)
 .text          0x0800316e        0x0 c:/users/tgr6hc/downloads/toolchain/gcc-arm-none-eabi-9-2019-q4-major-win32/bin/../lib/gcc/arm-none-eabi/9.2.1/../../../../arm-none-eabi/lib\libnosys.a(_exit.o)
 .text          0x0800316e        0x0 c:/users/tgr6hc/downloads/toolchain/gcc-arm-none-eabi-9-2019-q4-major-win32/bin/../lib/gcc/arm-none-eabi/9.2.1/crtend.o
 .text          0x0800316e        0x0 c:/users/tgr6hc/downloads/toolchain/gcc-arm-none-eabi-9-2019-q4-major-win32/bin/../lib/gcc/arm-none-eabi/9.2.1/crtn.o
 *(.text*)
 *fill*         0x0800316e        0x2 
 .text.exit     0x08003170       0x34 c:/users/tgr6hc/downloads/toolchain/gcc-arm-none-eabi-9-2019-q4-major-win32/bin/../lib/gcc/arm-none-eabi/9.2.1/../../../../arm-none-eabi/lib\libc.a(lib_a-exit.o)
                0x08003170                exit
 .text.__libc_init_array
                0x080031a4       0x88 c:/users/tgr6hc/downloads/toolchain/gcc-arm-none-eabi-9-2019-q4-major-win32/bin/../lib/gcc/arm-none-eabi/9.2.1/../../../../arm-none-eabi/lib\libc.a(lib_a-init.o)
                0x080031a4                __libc_init_array
 .text.memset   0x0800322c      0x11c c:/users/tgr6hc/downloads/toolchain/gcc-arm-none-eabi-9-2019-q4-major-win32/bin/../lib/gcc/arm-none-eabi/9.2.1/../../../../arm-none-eabi/lib\libc.a(lib_a-memset.o)
                0x0800322c                memset
 .text.startup.register_fini
                0x08003348       0x28 c:/users/tgr6hc/downloads/toolchain/gcc-arm-none-eabi-9-2019-q4-major-win32/bin/../lib/gcc/arm-none-eabi/9.2.1/../../../../arm-none-eabi/lib\libc.a(lib_a-__call_atexit.o)
 .text.__call_exitprocs
                0x08003370      0x138 c:/users/tgr6hc/downloads/toolchain/gcc-arm-none-eabi-9-2019-q4-major-win32/bin/../lib/gcc/arm-none-eabi/9.2.1/../../../../arm-none-eabi/lib\libc.a(lib_a-__call_atexit.o)
                0x08003370                __call_exitprocs
 .text.atexit   0x080034a8       0x20 c:/users/tgr6hc/downloads/toolchain/gcc-arm-none-eabi-9-2019-q4-major-win32/bin/../lib/gcc/arm-none-eabi/9.2.1/../../../../arm-none-eabi/lib\libc.a(lib_a-atexit.o)
                0x080034a8                atexit
 .text.__libc_fini_array
                0x080034c8       0x44 c:/users/tgr6hc/downloads/toolchain/gcc-arm-none-eabi-9-2019-q4-major-win32/bin/../lib/gcc/arm-none-eabi/9.2.1/../../../../arm-none-eabi/lib\libc.a(lib_a-fini.o)
                0x080034c8                __libc_fini_array
 .text.__retarget_lock_init
                0x0800350c        0x4 c:/users/tgr6hc/downloads/toolchain/gcc-arm-none-eabi-9-2019-q4-major-win32/bin/../lib/gcc/arm-none-eabi/9.2.1/../../../../arm-none-eabi/lib\libc.a(lib_a-lock.o)
                0x0800350c                __retarget_lock_init
 .text.__retarget_lock_init_recursive
                0x08003510        0x4 c:/users/tgr6hc/downloads/toolchain/gcc-arm-none-eabi-9-2019-q4-major-win32/bin/../lib/gcc/arm-none-eabi/9.2.1/../../../../arm-none-eabi/lib\libc.a(lib_a-lock.o)
                0x08003510                __retarget_lock_init_recursive
 .text.__retarget_lock_close
                0x08003514        0x4 c:/users/tgr6hc/downloads/toolchain/gcc-arm-none-eabi-9-2019-q4-major-win32/bin/../lib/gcc/arm-none-eabi/9.2.1/../../../../arm-none-eabi/lib\libc.a(lib_a-lock.o)
                0x08003514                __retarget_lock_close
 .text.__retarget_lock_close_recursive
                0x08003518        0x4 c:/users/tgr6hc/downloads/toolchain/gcc-arm-none-eabi-9-2019-q4-major-win32/bin/../lib/gcc/arm-none-eabi/9.2.1/../../../../arm-none-eabi/lib\libc.a(lib_a-lock.o)
                0x08003518                __retarget_lock_close_recursive
 .text.__retarget_lock_acquire
                0x0800351c        0x4 c:/users/tgr6hc/downloads/toolchain/gcc-arm-none-eabi-9-2019-q4-major-win32/bin/../lib/gcc/arm-none-eabi/9.2.1/../../../../arm-none-eabi/lib\libc.a(lib_a-lock.o)
                0x0800351c                __retarget_lock_acquire
 .text.__retarget_lock_acquire_recursive
                0x08003520        0x4 c:/users/tgr6hc/downloads/toolchain/gcc-arm-none-eabi-9-2019-q4-major-win32/bin/../lib/gcc/arm-none-eabi/9.2.1/../../../../arm-none-eabi/lib\libc.a(lib_a-lock.o)
                0x08003520                __retarget_lock_acquire_recursive
 .text.__retarget_lock_try_acquire
                0x08003524        0x8 c:/users/tgr6hc/downloads/toolchain/gcc-arm-none-eabi-9-2019-q4-major-win32/bin/../lib/gcc/arm-none-eabi/9.2.1/../../../../arm-none-eabi/lib\libc.a(lib_a-lock.o)
                0x08003524                __retarget_lock_try_acquire
 .text.__retarget_lock_try_acquire_recursive
                0x0800352c        0x8 c:/users/tgr6hc/downloads/toolchain/gcc-arm-none-eabi-9-2019-q4-major-win32/bin/../lib/gcc/arm-none-eabi/9.2.1/../../../../arm-none-eabi/lib\libc.a(lib_a-lock.o)
                0x0800352c                __retarget_lock_try_acquire_recursive
 .text.__retarget_lock_release
                0x08003534        0x4 c:/users/tgr6hc/downloads/toolchain/gcc-arm-none-eabi-9-2019-q4-major-win32/bin/../lib/gcc/arm-none-eabi/9.2.1/../../../../arm-none-eabi/lib\libc.a(lib_a-lock.o)
                0x08003534                __retarget_lock_release
 .text.__retarget_lock_release_recursive
                0x08003538        0x4 c:/users/tgr6hc/downloads/toolchain/gcc-arm-none-eabi-9-2019-q4-major-win32/bin/../lib/gcc/arm-none-eabi/9.2.1/../../../../arm-none-eabi/lib\libc.a(lib_a-lock.o)
                0x08003538                __retarget_lock_release_recursive
 .text.__register_exitproc
                0x0800353c       0xbc c:/users/tgr6hc/downloads/toolchain/gcc-arm-none-eabi-9-2019-q4-major-win32/bin/../lib/gcc/arm-none-eabi/9.2.1/../../../../arm-none-eabi/lib\libc.a(lib_a-__atexit.o)
                0x0800353c                __register_exitproc
 .text._exit    0x080035f8        0x4 c:/users/tgr6hc/downloads/toolchain/gcc-arm-none-eabi-9-2019-q4-major-win32/bin/../lib/gcc/arm-none-eabi/9.2.1/../../../../arm-none-eabi/lib\libnosys.a(_exit.o)
                0x080035f8                _exit
 *(.init)
 .init          0x080035fc        0xc c:/users/tgr6hc/downloads/toolchain/gcc-arm-none-eabi-9-2019-q4-major-win32/bin/../lib/gcc/arm-none-eabi/9.2.1/crti.o
                0x080035fc                _init
 .init          0x08003608        0xc c:/users/tgr6hc/downloads/toolchain/gcc-arm-none-eabi-9-2019-q4-major-win32/bin/../lib/gcc/arm-none-eabi/9.2.1/crtn.o
 *(.fini)
 .fini          0x08003614        0xc c:/users/tgr6hc/downloads/toolchain/gcc-arm-none-eabi-9-2019-q4-major-win32/bin/../lib/gcc/arm-none-eabi/9.2.1/crti.o
                0x08003614                _fini
 .fini          0x08003620        0xc c:/users/tgr6hc/downloads/toolchain/gcc-arm-none-eabi-9-2019-q4-major-win32/bin/../lib/gcc/arm-none-eabi/9.2.1/crtn.o
                0x0800362c                . = ALIGN (0x4)
                0x0800362c                _end_rom_text = .
                0x08003638                current_add_rom = .

.glue_7         0x0800362c        0x0
 .glue_7        0x0800362c        0x0 linker stubs

.glue_7t        0x0800362c        0x0
 .glue_7t       0x0800362c        0x0 linker stubs

.vfp11_veneer   0x0800362c        0x0
 .vfp11_veneer  0x0800362c        0x0 linker stubs

.v4_bx          0x0800362c        0x0
 .v4_bx         0x0800362c        0x0 linker stubs

.iplt           0x0800362c        0x0
 .iplt          0x0800362c        0x0 c:/users/tgr6hc/downloads/toolchain/gcc-arm-none-eabi-9-2019-q4-major-win32/bin/../lib/gcc/arm-none-eabi/9.2.1/crtbegin.o

.rodata         0x0800362c        0xc
                0x0800362c                . = ALIGN (0x4)
                0x0800362c                _start_rom_rodata = .
 *(.rodata)
 .rodata        0x0800362c        0x8 C:/Users/tgr6hc/Desktop/Embedded_full/GatewayECU_git/FlashBootLoader/build/Application/libapplication_lib.a(Diag_communication.c.obj)
 *(.rodata*)
 .rodata._global_impure_ptr
                0x08003634        0x4 c:/users/tgr6hc/downloads/toolchain/gcc-arm-none-eabi-9-2019-q4-major-win32/bin/../lib/gcc/arm-none-eabi/9.2.1/../../../../arm-none-eabi/lib\libc.a(lib_a-impure.o)
                0x08003634                _global_impure_ptr
                0x08003638                . = ALIGN (0x4)
                0x08003638                _end_rom_rodata = .
                0x08003638                current_add_rom = .
                0x200004e8                current_add_ram = 0x20000000

.eh_frame       0x08003638        0x4
 .eh_frame      0x08003638        0x0 c:/users/tgr6hc/downloads/toolchain/gcc-arm-none-eabi-9-2019-q4-major-win32/bin/../lib/gcc/arm-none-eabi/9.2.1/crtbegin.o
 .eh_frame      0x08003638        0x4 c:/users/tgr6hc/downloads/toolchain/gcc-arm-none-eabi-9-2019-q4-major-win32/bin/../lib/gcc/arm-none-eabi/9.2.1/crtend.o

.ARM.extab      0x0800363c        0x0
 .ARM.extab     0x0800363c        0x0 c:/users/tgr6hc/downloads/toolchain/gcc-arm-none-eabi-9-2019-q4-major-win32/bin/../lib/gcc/arm-none-eabi/9.2.1/../../../../arm-none-eabi/lib/crt0.o

.ARM.exidx      0x0800363c        0x8
 .ARM.exidx     0x0800363c        0x8 c:/users/tgr6hc/downloads/toolchain/gcc-arm-none-eabi-9-2019-q4-major-win32/bin/../lib/gcc/arm-none-eabi/9.2.1/../../../../arm-none-eabi/lib/crt0.o

.rel.dyn        0x08003644        0x0
 .rel.iplt      0x08003644        0x0 c:/users/tgr6hc/downloads/toolchain/gcc-arm-none-eabi-9-2019-q4-major-win32/bin/../lib/gcc/arm-none-eabi/9.2.1/crtbegin.o

.data           0x20000000      0x464
                0x20000000                . = ALIGN (0x4)
                0x20000000                _start_ram_data = .
 *(.data)
 .data          0x20000000        0x0 c:/users/tgr6hc/downloads/toolchain/gcc-arm-none-eabi-9-2019-q4-major-win32/bin/../lib/gcc/arm-none-eabi/9.2.1/crti.o
 .data          0x20000000        0x4 c:/users/tgr6hc/downloads/toolchain/gcc-arm-none-eabi-9-2019-q4-major-win32/bin/../lib/gcc/arm-none-eabi/9.2.1/crtbegin.o
                0x20000000                __dso_handle
 .data          0x20000004        0x0 c:/users/tgr6hc/downloads/toolchain/gcc-arm-none-eabi-9-2019-q4-major-win32/bin/../lib/gcc/arm-none-eabi/9.2.1/../../../../arm-none-eabi/lib/crt0.o
 .data          0x20000004        0x0 C:/Users/tgr6hc/Desktop/Embedded_full/GatewayECU_git/FlashBootLoader/build/Application/libapplication_lib.a(main.c.obj)
 .data          0x20000004        0x1 C:/Users/tgr6hc/Desktop/Embedded_full/GatewayECU_git/FlashBootLoader/build/Application/libapplication_lib.a(main_sm.c.obj)
 .data          0x20000005        0x0 C:/Users/tgr6hc/Desktop/Embedded_full/GatewayECU_git/FlashBootLoader/build/Application/libapplication_lib.a(app_jumping.c.obj)
 .data          0x20000005        0x0 C:/Users/tgr6hc/Desktop/Embedded_full/GatewayECU_git/FlashBootLoader/build/Application/libapplication_lib.a(service.c.obj)
 .data          0x20000005        0x0 C:/Users/tgr6hc/Desktop/Embedded_full/GatewayECU_git/FlashBootLoader/build/Application/libapplication_lib.a(service_sm.c.obj)
 .data          0x20000005        0x0 C:/Users/tgr6hc/Desktop/Embedded_full/GatewayECU_git/FlashBootLoader/build/Application/libapplication_lib.a(SWIL_sm.c.obj)
 .data          0x20000005        0x0 C:/Users/tgr6hc/Desktop/Embedded_full/GatewayECU_git/FlashBootLoader/build/Application/libapplication_lib.a(Diag_communication.c.obj)
 *fill*         0x20000005        0x3 
 .data          0x20000008       0x18 C:/Users/tgr6hc/Desktop/Embedded_full/GatewayECU_git/FlashBootLoader/build/Application/libapplication_lib.a(flash_hw_service.c.obj)
                0x20000008                FLASH_ErasePage_ptr
                0x2000000c                FLASH_ProgramHalfWord_ptr
                0x20000010                PROJ_CHK_SAE_J1850_0x1D_ptr
                0x20000014                FLASH_SetLatency_ptr
                0x20000018                FLASH_Lock_ptr
                0x2000001c                FLASH_Unlock_ptr
 .data          0x20000020        0x0 C:/Users/tgr6hc/Desktop/Embedded_full/GatewayECU_git/FlashBootLoader/build/Application/libapplication_lib.a(NvM_handle.c.obj)
 .data          0x20000020        0x0 C:/Users/tgr6hc/Desktop/Embedded_full/GatewayECU_git/FlashBootLoader/build/MCAL/libMCAL_lib.a(misc.c.obj)
 .data          0x20000020        0x0 C:/Users/tgr6hc/Desktop/Embedded_full/GatewayECU_git/FlashBootLoader/build/MCAL/libMCAL_lib.a(stm32f10x_can.c.obj)
 .data          0x20000020        0x0 C:/Users/tgr6hc/Desktop/Embedded_full/GatewayECU_git/FlashBootLoader/build/MCAL/libMCAL_lib.a(stm32f10x_gpio.c.obj)
 .data          0x20000020       0x14 C:/Users/tgr6hc/Desktop/Embedded_full/GatewayECU_git/FlashBootLoader/build/MCAL/libMCAL_lib.a(stm32f10x_rcc.c.obj)
 .data          0x20000034        0x0 C:/Users/tgr6hc/Desktop/Embedded_full/GatewayECU_git/FlashBootLoader/build/MCAL/libMCAL_lib.a(core_cm3.c.obj)
 .data          0x20000034        0x0 C:\Users\tgr6hc\AppData\Local\Temp\cc835wyF.o
 .data          0x20000034        0x0 c:/users/tgr6hc/downloads/toolchain/gcc-arm-none-eabi-9-2019-q4-major-win32/bin/../lib/gcc/arm-none-eabi/9.2.1/../../../../arm-none-eabi/lib\libc.a(lib_a-exit.o)
 .data          0x20000034        0x0 c:/users/tgr6hc/downloads/toolchain/gcc-arm-none-eabi-9-2019-q4-major-win32/bin/../lib/gcc/arm-none-eabi/9.2.1/../../../../arm-none-eabi/lib\libc.a(lib_a-impure.o)
 .data          0x20000034        0x0 c:/users/tgr6hc/downloads/toolchain/gcc-arm-none-eabi-9-2019-q4-major-win32/bin/../lib/gcc/arm-none-eabi/9.2.1/../../../../arm-none-eabi/lib\libc.a(lib_a-init.o)
 .data          0x20000034        0x0 c:/users/tgr6hc/downloads/toolchain/gcc-arm-none-eabi-9-2019-q4-major-win32/bin/../lib/gcc/arm-none-eabi/9.2.1/../../../../arm-none-eabi/lib\libc.a(lib_a-memset.o)
 .data          0x20000034        0x0 c:/users/tgr6hc/downloads/toolchain/gcc-arm-none-eabi-9-2019-q4-major-win32/bin/../lib/gcc/arm-none-eabi/9.2.1/../../../../arm-none-eabi/lib\libc.a(lib_a-__call_atexit.o)
 .data          0x20000034        0x0 c:/users/tgr6hc/downloads/toolchain/gcc-arm-none-eabi-9-2019-q4-major-win32/bin/../lib/gcc/arm-none-eabi/9.2.1/../../../../arm-none-eabi/lib\libc.a(lib_a-atexit.o)
 .data          0x20000034        0x0 c:/users/tgr6hc/downloads/toolchain/gcc-arm-none-eabi-9-2019-q4-major-win32/bin/../lib/gcc/arm-none-eabi/9.2.1/../../../../arm-none-eabi/lib\libc.a(lib_a-fini.o)
 .data          0x20000034        0x0 c:/users/tgr6hc/downloads/toolchain/gcc-arm-none-eabi-9-2019-q4-major-win32/bin/../lib/gcc/arm-none-eabi/9.2.1/../../../../arm-none-eabi/lib\libc.a(lib_a-lock.o)
 .data          0x20000034        0x0 c:/users/tgr6hc/downloads/toolchain/gcc-arm-none-eabi-9-2019-q4-major-win32/bin/../lib/gcc/arm-none-eabi/9.2.1/../../../../arm-none-eabi/lib\libc.a(lib_a-__atexit.o)
 .data          0x20000034        0x0 c:/users/tgr6hc/downloads/toolchain/gcc-arm-none-eabi-9-2019-q4-major-win32/bin/../lib/gcc/arm-none-eabi/9.2.1/../../../../arm-none-eabi/lib\libnosys.a(_exit.o)
 .data          0x20000034        0x0 c:/users/tgr6hc/downloads/toolchain/gcc-arm-none-eabi-9-2019-q4-major-win32/bin/../lib/gcc/arm-none-eabi/9.2.1/crtend.o
 .data          0x20000034        0x0 c:/users/tgr6hc/downloads/toolchain/gcc-arm-none-eabi-9-2019-q4-major-win32/bin/../lib/gcc/arm-none-eabi/9.2.1/crtn.o
 *(.data*)
 .data._impure_ptr
                0x20000034        0x4 c:/users/tgr6hc/downloads/toolchain/gcc-arm-none-eabi-9-2019-q4-major-win32/bin/../lib/gcc/arm-none-eabi/9.2.1/../../../../arm-none-eabi/lib\libc.a(lib_a-impure.o)
                0x20000034                _impure_ptr
 .data.impure_data
                0x20000038      0x428 c:/users/tgr6hc/downloads/toolchain/gcc-arm-none-eabi-9-2019-q4-major-win32/bin/../lib/gcc/arm-none-eabi/9.2.1/../../../../arm-none-eabi/lib\libc.a(lib_a-impure.o)
 .data.__atexit_recursive_mutex
                0x20000460        0x4 c:/users/tgr6hc/downloads/toolchain/gcc-arm-none-eabi-9-2019-q4-major-win32/bin/../lib/gcc/arm-none-eabi/9.2.1/../../../../arm-none-eabi/lib\libc.a(lib_a-__call_atexit.o)
                0x20000460                __atexit_recursive_mutex
                0x20000464                . = ALIGN (0x4)
                0x20000464                _end_ram_data = .
                0x200004e8                current_add_ram = .

.init_array     0x20000464        0x4
 .init_array    0x20000464        0x4 c:/users/tgr6hc/downloads/toolchain/gcc-arm-none-eabi-9-2019-q4-major-win32/bin/../lib/gcc/arm-none-eabi/9.2.1/crtbegin.o

.fini_array     0x20000468        0x4
 .fini_array    0x20000468        0x4 c:/users/tgr6hc/downloads/toolchain/gcc-arm-none-eabi-9-2019-q4-major-win32/bin/../lib/gcc/arm-none-eabi/9.2.1/crtbegin.o

.igot.plt       0x2000046c        0x0
 .igot.plt      0x2000046c        0x0 c:/users/tgr6hc/downloads/toolchain/gcc-arm-none-eabi-9-2019-q4-major-win32/bin/../lib/gcc/arm-none-eabi/9.2.1/crtbegin.o

.init_array.00000
                0x2000046c        0x4
 .init_array.00000
                0x2000046c        0x4 c:/users/tgr6hc/downloads/toolchain/gcc-arm-none-eabi-9-2019-q4-major-win32/bin/../lib/gcc/arm-none-eabi/9.2.1/../../../../arm-none-eabi/lib\libc.a(lib_a-__call_atexit.o)

.bss            0x20000464       0x84
                0x20000464                . = ALIGN (0x4)
                0x20000464                _start_ram_bss = .
                0x20000464                __bss_start__ = _start_ram_bss
 *(.bss)
 .bss           0x20000464        0x0 c:/users/tgr6hc/downloads/toolchain/gcc-arm-none-eabi-9-2019-q4-major-win32/bin/../lib/gcc/arm-none-eabi/9.2.1/crti.o
 .bss           0x20000464       0x1c c:/users/tgr6hc/downloads/toolchain/gcc-arm-none-eabi-9-2019-q4-major-win32/bin/../lib/gcc/arm-none-eabi/9.2.1/crtbegin.o
 .bss           0x20000480        0x0 c:/users/tgr6hc/downloads/toolchain/gcc-arm-none-eabi-9-2019-q4-major-win32/bin/../lib/gcc/arm-none-eabi/9.2.1/../../../../arm-none-eabi/lib/crt0.o
 .bss           0x20000480        0x1 C:/Users/tgr6hc/Desktop/Embedded_full/GatewayECU_git/FlashBootLoader/build/Application/libapplication_lib.a(main.c.obj)
                0x20000480                KeyNumber
 .bss           0x20000481        0x1 C:/Users/tgr6hc/Desktop/Embedded_full/GatewayECU_git/FlashBootLoader/build/Application/libapplication_lib.a(main_sm.c.obj)
 .bss           0x20000482        0x0 C:/Users/tgr6hc/Desktop/Embedded_full/GatewayECU_git/FlashBootLoader/build/Application/libapplication_lib.a(app_jumping.c.obj)
 .bss           0x20000482        0x0 C:/Users/tgr6hc/Desktop/Embedded_full/GatewayECU_git/FlashBootLoader/build/Application/libapplication_lib.a(service.c.obj)
 .bss           0x20000482        0x0 C:/Users/tgr6hc/Desktop/Embedded_full/GatewayECU_git/FlashBootLoader/build/Application/libapplication_lib.a(service_sm.c.obj)
 .bss           0x20000482        0x1 C:/Users/tgr6hc/Desktop/Embedded_full/GatewayECU_git/FlashBootLoader/build/Application/libapplication_lib.a(SWIL_sm.c.obj)
 .bss           0x20000483        0x0 C:/Users/tgr6hc/Desktop/Embedded_full/GatewayECU_git/FlashBootLoader/build/Application/libapplication_lib.a(Diag_communication.c.obj)
 .bss           0x20000483        0x3 C:/Users/tgr6hc/Desktop/Embedded_full/GatewayECU_git/FlashBootLoader/build/Application/libapplication_lib.a(flash_hw_service.c.obj)
 .bss           0x20000486        0x0 C:/Users/tgr6hc/Desktop/Embedded_full/GatewayECU_git/FlashBootLoader/build/Application/libapplication_lib.a(NvM_handle.c.obj)
 .bss           0x20000486        0x0 C:/Users/tgr6hc/Desktop/Embedded_full/GatewayECU_git/FlashBootLoader/build/MCAL/libMCAL_lib.a(misc.c.obj)
 .bss           0x20000486        0x0 C:/Users/tgr6hc/Desktop/Embedded_full/GatewayECU_git/FlashBootLoader/build/MCAL/libMCAL_lib.a(stm32f10x_can.c.obj)
 .bss           0x20000486        0x0 C:/Users/tgr6hc/Desktop/Embedded_full/GatewayECU_git/FlashBootLoader/build/MCAL/libMCAL_lib.a(stm32f10x_gpio.c.obj)
 .bss           0x20000486        0x0 C:/Users/tgr6hc/Desktop/Embedded_full/GatewayECU_git/FlashBootLoader/build/MCAL/libMCAL_lib.a(stm32f10x_rcc.c.obj)
 .bss           0x20000486        0x0 C:/Users/tgr6hc/Desktop/Embedded_full/GatewayECU_git/FlashBootLoader/build/MCAL/libMCAL_lib.a(core_cm3.c.obj)
 .bss           0x20000486        0x0 C:\Users\tgr6hc\AppData\Local\Temp\cc835wyF.o
 .bss           0x20000486        0x0 c:/users/tgr6hc/downloads/toolchain/gcc-arm-none-eabi-9-2019-q4-major-win32/bin/../lib/gcc/arm-none-eabi/9.2.1/../../../../arm-none-eabi/lib\libc.a(lib_a-exit.o)
 .bss           0x20000486        0x0 c:/users/tgr6hc/downloads/toolchain/gcc-arm-none-eabi-9-2019-q4-major-win32/bin/../lib/gcc/arm-none-eabi/9.2.1/../../../../arm-none-eabi/lib\libc.a(lib_a-impure.o)
 .bss           0x20000486        0x0 c:/users/tgr6hc/downloads/toolchain/gcc-arm-none-eabi-9-2019-q4-major-win32/bin/../lib/gcc/arm-none-eabi/9.2.1/../../../../arm-none-eabi/lib\libc.a(lib_a-init.o)
 .bss           0x20000486        0x0 c:/users/tgr6hc/downloads/toolchain/gcc-arm-none-eabi-9-2019-q4-major-win32/bin/../lib/gcc/arm-none-eabi/9.2.1/../../../../arm-none-eabi/lib\libc.a(lib_a-memset.o)
 .bss           0x20000486        0x0 c:/users/tgr6hc/downloads/toolchain/gcc-arm-none-eabi-9-2019-q4-major-win32/bin/../lib/gcc/arm-none-eabi/9.2.1/../../../../arm-none-eabi/lib\libc.a(lib_a-__call_atexit.o)
 .bss           0x20000486        0x0 c:/users/tgr6hc/downloads/toolchain/gcc-arm-none-eabi-9-2019-q4-major-win32/bin/../lib/gcc/arm-none-eabi/9.2.1/../../../../arm-none-eabi/lib\libc.a(lib_a-atexit.o)
 .bss           0x20000486        0x0 c:/users/tgr6hc/downloads/toolchain/gcc-arm-none-eabi-9-2019-q4-major-win32/bin/../lib/gcc/arm-none-eabi/9.2.1/../../../../arm-none-eabi/lib\libc.a(lib_a-fini.o)
 .bss           0x20000486        0x0 c:/users/tgr6hc/downloads/toolchain/gcc-arm-none-eabi-9-2019-q4-major-win32/bin/../lib/gcc/arm-none-eabi/9.2.1/../../../../arm-none-eabi/lib\libc.a(lib_a-lock.o)
 .bss           0x20000486        0x0 c:/users/tgr6hc/downloads/toolchain/gcc-arm-none-eabi-9-2019-q4-major-win32/bin/../lib/gcc/arm-none-eabi/9.2.1/../../../../arm-none-eabi/lib\libc.a(lib_a-__atexit.o)
 .bss           0x20000486        0x0 c:/users/tgr6hc/downloads/toolchain/gcc-arm-none-eabi-9-2019-q4-major-win32/bin/../lib/gcc/arm-none-eabi/9.2.1/../../../../arm-none-eabi/lib\libnosys.a(_exit.o)
 .bss           0x20000486        0x0 c:/users/tgr6hc/downloads/toolchain/gcc-arm-none-eabi-9-2019-q4-major-win32/bin/../lib/gcc/arm-none-eabi/9.2.1/crtend.o
 .bss           0x20000486        0x0 c:/users/tgr6hc/downloads/toolchain/gcc-arm-none-eabi-9-2019-q4-major-win32/bin/../lib/gcc/arm-none-eabi/9.2.1/crtn.o
 *(.bss*)
 *(COMMON)
 *fill*         0x20000486        0x2 
 COMMON         0x20000488       0x30 C:/Users/tgr6hc/Desktop/Embedded_full/GatewayECU_git/FlashBootLoader/build/Application/libapplication_lib.a(main.c.obj)
                0x20000488                CAN_InitStructure
                0x20000494                CAN_FilterInitStructure
                0x200004a4                TxMessage
 COMMON         0x200004b8        0xa C:/Users/tgr6hc/Desktop/Embedded_full/GatewayECU_git/FlashBootLoader/build/Application/libapplication_lib.a(main_sm.c.obj)
                0x200004b8                g_transmitData_st
 *fill*         0x200004c2        0x2 
 COMMON         0x200004c4       0x21 c:/users/tgr6hc/downloads/toolchain/gcc-arm-none-eabi-9-2019-q4-major-win32/bin/../lib/gcc/arm-none-eabi/9.2.1/../../../../arm-none-eabi/lib\libc.a(lib_a-lock.o)
                0x200004c4                __lock___atexit_recursive_mutex
                0x200004c8                __lock___arc4random_mutex
                0x200004cc                __lock___env_recursive_mutex
                0x200004d0                __lock___sinit_recursive_mutex
                0x200004d4                __lock___malloc_recursive_mutex
                0x200004d8                __lock___at_quick_exit_mutex
                0x200004dc                __lock___dd_hash_mutex
                0x200004e0                __lock___tz_mutex
                0x200004e4                __lock___sfp_recursive_mutex
                0x200004e8                . = ALIGN (0x4)
 *fill*         0x200004e5        0x3 
                0x200004e8                _end_ram_bss = .
                0x200004e8                __bss_end__ = _end_ram_bss
                0x200004e8                end = _end_ram_bss
                0x200004e8                current_add_ram = .
OUTPUT(../build/software_fbl.elf elf32-littlearm)

.ARM.attributes
                0x00000000       0x2c
 .ARM.attributes
                0x00000000       0x1c c:/users/tgr6hc/downloads/toolchain/gcc-arm-none-eabi-9-2019-q4-major-win32/bin/../lib/gcc/arm-none-eabi/9.2.1/crti.o
 .ARM.attributes
                0x0000001c       0x2a c:/users/tgr6hc/downloads/toolchain/gcc-arm-none-eabi-9-2019-q4-major-win32/bin/../lib/gcc/arm-none-eabi/9.2.1/crtbegin.o
 .ARM.attributes
                0x00000046       0x1a c:/users/tgr6hc/downloads/toolchain/gcc-arm-none-eabi-9-2019-q4-major-win32/bin/../lib/gcc/arm-none-eabi/9.2.1/../../../../arm-none-eabi/lib/crt0.o
 .ARM.attributes
                0x00000060       0x2e C:/Users/tgr6hc/Desktop/Embedded_full/GatewayECU_git/FlashBootLoader/build/Application/libapplication_lib.a(main.c.obj)
 .ARM.attributes
                0x0000008e       0x2e C:/Users/tgr6hc/Desktop/Embedded_full/GatewayECU_git/FlashBootLoader/build/Application/libapplication_lib.a(main_sm.c.obj)
 .ARM.attributes
                0x000000bc       0x2e C:/Users/tgr6hc/Desktop/Embedded_full/GatewayECU_git/FlashBootLoader/build/Application/libapplication_lib.a(app_jumping.c.obj)
 .ARM.attributes
                0x000000ea       0x2e C:/Users/tgr6hc/Desktop/Embedded_full/GatewayECU_git/FlashBootLoader/build/Application/libapplication_lib.a(service.c.obj)
 .ARM.attributes
                0x00000118       0x2e C:/Users/tgr6hc/Desktop/Embedded_full/GatewayECU_git/FlashBootLoader/build/Application/libapplication_lib.a(service_sm.c.obj)
 .ARM.attributes
                0x00000146       0x2e C:/Users/tgr6hc/Desktop/Embedded_full/GatewayECU_git/FlashBootLoader/build/Application/libapplication_lib.a(SWIL_sm.c.obj)
 .ARM.attributes
                0x00000174       0x2e C:/Users/tgr6hc/Desktop/Embedded_full/GatewayECU_git/FlashBootLoader/build/Application/libapplication_lib.a(Diag_communication.c.obj)
 .ARM.attributes
                0x000001a2       0x2e C:/Users/tgr6hc/Desktop/Embedded_full/GatewayECU_git/FlashBootLoader/build/Application/libapplication_lib.a(flash_hw_service.c.obj)
 .ARM.attributes
                0x000001d0       0x2e C:/Users/tgr6hc/Desktop/Embedded_full/GatewayECU_git/FlashBootLoader/build/Application/libapplication_lib.a(NvM_handle.c.obj)
 .ARM.attributes
                0x000001fe       0x2e C:/Users/tgr6hc/Desktop/Embedded_full/GatewayECU_git/FlashBootLoader/build/MCAL/libMCAL_lib.a(misc.c.obj)
 .ARM.attributes
                0x0000022c       0x2e C:/Users/tgr6hc/Desktop/Embedded_full/GatewayECU_git/FlashBootLoader/build/MCAL/libMCAL_lib.a(stm32f10x_can.c.obj)
 .ARM.attributes
                0x0000025a       0x2e C:/Users/tgr6hc/Desktop/Embedded_full/GatewayECU_git/FlashBootLoader/build/MCAL/libMCAL_lib.a(stm32f10x_gpio.c.obj)
 .ARM.attributes
                0x00000288       0x2e C:/Users/tgr6hc/Desktop/Embedded_full/GatewayECU_git/FlashBootLoader/build/MCAL/libMCAL_lib.a(stm32f10x_rcc.c.obj)
 .ARM.attributes
                0x000002b6       0x2e C:/Users/tgr6hc/Desktop/Embedded_full/GatewayECU_git/FlashBootLoader/build/MCAL/libMCAL_lib.a(core_cm3.c.obj)
 .ARM.attributes
                0x000002e4       0x30 C:\Users\tgr6hc\AppData\Local\Temp\cc835wyF.o
 .ARM.attributes
                0x00000314       0x2a c:/users/tgr6hc/downloads/toolchain/gcc-arm-none-eabi-9-2019-q4-major-win32/bin/../lib/gcc/arm-none-eabi/9.2.1/../../../../arm-none-eabi/lib\libc.a(lib_a-exit.o)
 .ARM.attributes
                0x0000033e       0x30 c:/users/tgr6hc/downloads/toolchain/gcc-arm-none-eabi-9-2019-q4-major-win32/bin/../lib/gcc/arm-none-eabi/9.2.1/../../../../arm-none-eabi/lib\libc.a(lib_a-impure.o)
 .ARM.attributes
                0x0000036e       0x2a c:/users/tgr6hc/downloads/toolchain/gcc-arm-none-eabi-9-2019-q4-major-win32/bin/../lib/gcc/arm-none-eabi/9.2.1/../../../../arm-none-eabi/lib\libc.a(lib_a-init.o)
 .ARM.attributes
                0x00000398       0x2a c:/users/tgr6hc/downloads/toolchain/gcc-arm-none-eabi-9-2019-q4-major-win32/bin/../lib/gcc/arm-none-eabi/9.2.1/../../../../arm-none-eabi/lib\libc.a(lib_a-memset.o)
 .ARM.attributes
                0x000003c2       0x2a c:/users/tgr6hc/downloads/toolchain/gcc-arm-none-eabi-9-2019-q4-major-win32/bin/../lib/gcc/arm-none-eabi/9.2.1/../../../../arm-none-eabi/lib\libc.a(lib_a-__call_atexit.o)
 .ARM.attributes
                0x000003ec       0x2a c:/users/tgr6hc/downloads/toolchain/gcc-arm-none-eabi-9-2019-q4-major-win32/bin/../lib/gcc/arm-none-eabi/9.2.1/../../../../arm-none-eabi/lib\libc.a(lib_a-atexit.o)
 .ARM.attributes
                0x00000416       0x2a c:/users/tgr6hc/downloads/toolchain/gcc-arm-none-eabi-9-2019-q4-major-win32/bin/../lib/gcc/arm-none-eabi/9.2.1/../../../../arm-none-eabi/lib\libc.a(lib_a-fini.o)
 .ARM.attributes
                0x00000440       0x2a c:/users/tgr6hc/downloads/toolchain/gcc-arm-none-eabi-9-2019-q4-major-win32/bin/../lib/gcc/arm-none-eabi/9.2.1/../../../../arm-none-eabi/lib\libc.a(lib_a-lock.o)
 .ARM.attributes
                0x0000046a       0x2a c:/users/tgr6hc/downloads/toolchain/gcc-arm-none-eabi-9-2019-q4-major-win32/bin/../lib/gcc/arm-none-eabi/9.2.1/../../../../arm-none-eabi/lib\libc.a(lib_a-__atexit.o)
 .ARM.attributes
                0x00000494       0x2a c:/users/tgr6hc/downloads/toolchain/gcc-arm-none-eabi-9-2019-q4-major-win32/bin/../lib/gcc/arm-none-eabi/9.2.1/../../../../arm-none-eabi/lib\libnosys.a(_exit.o)
 .ARM.attributes
                0x000004be       0x30 c:/users/tgr6hc/downloads/toolchain/gcc-arm-none-eabi-9-2019-q4-major-win32/bin/../lib/gcc/arm-none-eabi/9.2.1/crtend.o
 .ARM.attributes
                0x000004ee       0x1c c:/users/tgr6hc/downloads/toolchain/gcc-arm-none-eabi-9-2019-q4-major-win32/bin/../lib/gcc/arm-none-eabi/9.2.1/crtn.o

.comment        0x00000000       0x79
 .comment       0x00000000       0x79 C:/Users/tgr6hc/Desktop/Embedded_full/GatewayECU_git/FlashBootLoader/build/Application/libapplication_lib.a(main.c.obj)
                                 0x7a (size before relaxing)
 .comment       0x00000079       0x7a C:/Users/tgr6hc/Desktop/Embedded_full/GatewayECU_git/FlashBootLoader/build/Application/libapplication_lib.a(main_sm.c.obj)
 .comment       0x00000079       0x7a C:/Users/tgr6hc/Desktop/Embedded_full/GatewayECU_git/FlashBootLoader/build/Application/libapplication_lib.a(app_jumping.c.obj)
 .comment       0x00000079       0x7a C:/Users/tgr6hc/Desktop/Embedded_full/GatewayECU_git/FlashBootLoader/build/Application/libapplication_lib.a(service.c.obj)
 .comment       0x00000079       0x7a C:/Users/tgr6hc/Desktop/Embedded_full/GatewayECU_git/FlashBootLoader/build/Application/libapplication_lib.a(service_sm.c.obj)
 .comment       0x00000079       0x7a C:/Users/tgr6hc/Desktop/Embedded_full/GatewayECU_git/FlashBootLoader/build/Application/libapplication_lib.a(SWIL_sm.c.obj)
 .comment       0x00000079       0x7a C:/Users/tgr6hc/Desktop/Embedded_full/GatewayECU_git/FlashBootLoader/build/Application/libapplication_lib.a(Diag_communication.c.obj)
 .comment       0x00000079       0x7a C:/Users/tgr6hc/Desktop/Embedded_full/GatewayECU_git/FlashBootLoader/build/Application/libapplication_lib.a(flash_hw_service.c.obj)
 .comment       0x00000079       0x7a C:/Users/tgr6hc/Desktop/Embedded_full/GatewayECU_git/FlashBootLoader/build/Application/libapplication_lib.a(NvM_handle.c.obj)
 .comment       0x00000079       0x7a C:/Users/tgr6hc/Desktop/Embedded_full/GatewayECU_git/FlashBootLoader/build/MCAL/libMCAL_lib.a(misc.c.obj)
 .comment       0x00000079       0x7a C:/Users/tgr6hc/Desktop/Embedded_full/GatewayECU_git/FlashBootLoader/build/MCAL/libMCAL_lib.a(stm32f10x_can.c.obj)
 .comment       0x00000079       0x7a C:/Users/tgr6hc/Desktop/Embedded_full/GatewayECU_git/FlashBootLoader/build/MCAL/libMCAL_lib.a(stm32f10x_gpio.c.obj)
 .comment       0x00000079       0x7a C:/Users/tgr6hc/Desktop/Embedded_full/GatewayECU_git/FlashBootLoader/build/MCAL/libMCAL_lib.a(stm32f10x_rcc.c.obj)
 .comment       0x00000079       0x7a C:/Users/tgr6hc/Desktop/Embedded_full/GatewayECU_git/FlashBootLoader/build/MCAL/libMCAL_lib.a(core_cm3.c.obj)
 .comment       0x00000079       0x7a C:\Users\tgr6hc\AppData\Local\Temp\cc835wyF.o

.debug_frame    0x00000000      0x280
 .debug_frame   0x00000000       0x28 c:/users/tgr6hc/downloads/toolchain/gcc-arm-none-eabi-9-2019-q4-major-win32/bin/../lib/gcc/arm-none-eabi/9.2.1/../../../../arm-none-eabi/lib\libc.a(lib_a-exit.o)
 .debug_frame   0x00000028       0x34 c:/users/tgr6hc/downloads/toolchain/gcc-arm-none-eabi-9-2019-q4-major-win32/bin/../lib/gcc/arm-none-eabi/9.2.1/../../../../arm-none-eabi/lib\libc.a(lib_a-init.o)
 .debug_frame   0x0000005c       0x50 c:/users/tgr6hc/downloads/toolchain/gcc-arm-none-eabi-9-2019-q4-major-win32/bin/../lib/gcc/arm-none-eabi/9.2.1/../../../../arm-none-eabi/lib\libc.a(lib_a-memset.o)
 .debug_frame   0x000000ac       0x68 c:/users/tgr6hc/downloads/toolchain/gcc-arm-none-eabi-9-2019-q4-major-win32/bin/../lib/gcc/arm-none-eabi/9.2.1/../../../../arm-none-eabi/lib\libc.a(lib_a-__call_atexit.o)
 .debug_frame   0x00000114       0x2c c:/users/tgr6hc/downloads/toolchain/gcc-arm-none-eabi-9-2019-q4-major-win32/bin/../lib/gcc/arm-none-eabi/9.2.1/../../../../arm-none-eabi/lib\libc.a(lib_a-atexit.o)
 .debug_frame   0x00000140       0x34 c:/users/tgr6hc/downloads/toolchain/gcc-arm-none-eabi-9-2019-q4-major-win32/bin/../lib/gcc/arm-none-eabi/9.2.1/../../../../arm-none-eabi/lib\libc.a(lib_a-fini.o)
 .debug_frame   0x00000174       0xb0 c:/users/tgr6hc/downloads/toolchain/gcc-arm-none-eabi-9-2019-q4-major-win32/bin/../lib/gcc/arm-none-eabi/9.2.1/../../../../arm-none-eabi/lib\libc.a(lib_a-lock.o)
 .debug_frame   0x00000224       0x3c c:/users/tgr6hc/downloads/toolchain/gcc-arm-none-eabi-9-2019-q4-major-win32/bin/../lib/gcc/arm-none-eabi/9.2.1/../../../../arm-none-eabi/lib\libc.a(lib_a-__atexit.o)
 .debug_frame   0x00000260       0x20 c:/users/tgr6hc/downloads/toolchain/gcc-arm-none-eabi-9-2019-q4-major-win32/bin/../lib/gcc/arm-none-eabi/9.2.1/../../../../arm-none-eabi/lib\libnosys.a(_exit.o)
